(dp0
I51810146
VPottsville, PA
p1
sI48859879
VHalifax, NS
p2
sI56233201
VKindersley, sk
p3
sI81363922
VDeltona,Fl
p4
sI73981587
VUnion Beach, NJ
p5
sI84877018
VPortland OR
p6
sI59707804
VPaso Robles, CA
p7
s.